Archive member included to satisfy reference by file (symbol)

c:/program files/microchip/xc8/v2.45/avr/bin/../lib/gcc/avr/5.4.0/avr25/memx-const\libgcc.a(_copy_data.o)
                              build/default/production/APP.o (__do_copy_data)
c:/program files/microchip/xc8/v2.45/avr/bin/../lib/gcc/avr/5.4.0/avr25/memx-const\libgcc.a(_xload_2.o)
                              build/default/production/MCAL_LAYER/Interrupt/mcal_external_inerrupt.o (__xload_2)
c:/program files/microchip/xc8/v2.45/avr/bin/../lib/gcc/avr/5.4.0/../../../../avr/lib/avr25/memx-const\libc.a(exit.o)
                              C:/Users/OMEN/.mchp_packs/Microchip/ATtiny_DFP/3.1.260/xc8/avr/lib/avr25/memx-const/crtattiny85.o (exit)
c:/program files/microchip/xc8/v2.45/avr/bin/../lib/gcc/avr/5.4.0/../../../../avr/lib/avr25/memx-const\libc.a(_Exit.o)
                              c:/program files/microchip/xc8/v2.45/avr/bin/../lib/gcc/avr/5.4.0/../../../../avr/lib/avr25/memx-const\libc.a(exit.o) (_Exit)
c:/program files/microchip/xc8/v2.45/avr/bin/../lib/gcc/avr/5.4.0/avr25/memx-const\libgcc.a(_exit.o)
                              c:/program files/microchip/xc8/v2.45/avr/bin/../lib/gcc/avr/5.4.0/../../../../avr/lib/avr25/memx-const\libc.a(_Exit.o) (_exit)

Discarded input sections

 .data          0x0000000000000000        0x0 C:/Users/OMEN/.mchp_packs/Microchip/ATtiny_DFP/3.1.260/xc8/avr/lib/avr25/memx-const/crtattiny85.o
 .bss           0x0000000000000000        0x0 C:/Users/OMEN/.mchp_packs/Microchip/ATtiny_DFP/3.1.260/xc8/avr/lib/avr25/memx-const/crtattiny85.o
 .text          0x0000000000000000        0x0 build/default/production/ECU_LAYER/botton/ECU_BUTTON_.o
 .data          0x0000000000000000        0x0 build/default/production/ECU_LAYER/botton/ECU_BUTTON_.o
 .bss           0x0000000000000000        0x0 build/default/production/ECU_LAYER/botton/ECU_BUTTON_.o
 .text.button_initialize
                0x0000000000000000       0x10 build/default/production/ECU_LAYER/botton/ECU_BUTTON_.o
 .text.button_read_state
                0x0000000000000000       0x8c build/default/production/ECU_LAYER/botton/ECU_BUTTON_.o
 .debug_info    0x0000000000000000      0x544 build/default/production/ECU_LAYER/botton/ECU_BUTTON_.o
 .debug_abbrev  0x0000000000000000      0x10d build/default/production/ECU_LAYER/botton/ECU_BUTTON_.o
 .debug_loc     0x0000000000000000      0x14b build/default/production/ECU_LAYER/botton/ECU_BUTTON_.o
 .debug_aranges
                0x0000000000000000       0x28 build/default/production/ECU_LAYER/botton/ECU_BUTTON_.o
 .debug_ranges  0x0000000000000000       0x18 build/default/production/ECU_LAYER/botton/ECU_BUTTON_.o
 .debug_line    0x0000000000000000      0x152 build/default/production/ECU_LAYER/botton/ECU_BUTTON_.o
 .debug_str     0x0000000000000000       0x31 build/default/production/ECU_LAYER/botton/ECU_BUTTON_.o
 .comment       0x0000000000000000       0x30 build/default/production/ECU_LAYER/botton/ECU_BUTTON_.o
 .debug_frame   0x0000000000000000       0x60 build/default/production/ECU_LAYER/botton/ECU_BUTTON_.o
 .text          0x0000000000000000        0x0 build/default/production/ECU_LAYER/dc_motor/ECU_DC_MOTOR.o
 .data          0x0000000000000000        0x0 build/default/production/ECU_LAYER/dc_motor/ECU_DC_MOTOR.o
 .bss           0x0000000000000000        0x0 build/default/production/ECU_LAYER/dc_motor/ECU_DC_MOTOR.o
 .text.dc_motor_initialize
                0x0000000000000000       0x2e build/default/production/ECU_LAYER/dc_motor/ECU_DC_MOTOR.o
 .text.dc_motor_move_right
                0x0000000000000000       0x32 build/default/production/ECU_LAYER/dc_motor/ECU_DC_MOTOR.o
 .text.dc_motor_move_left
                0x0000000000000000       0x32 build/default/production/ECU_LAYER/dc_motor/ECU_DC_MOTOR.o
 .text.dc_motor_stop
                0x0000000000000000       0x32 build/default/production/ECU_LAYER/dc_motor/ECU_DC_MOTOR.o
 .debug_info    0x0000000000000000      0x5b0 build/default/production/ECU_LAYER/dc_motor/ECU_DC_MOTOR.o
 .debug_abbrev  0x0000000000000000      0x118 build/default/production/ECU_LAYER/dc_motor/ECU_DC_MOTOR.o
 .debug_loc     0x0000000000000000      0x1b8 build/default/production/ECU_LAYER/dc_motor/ECU_DC_MOTOR.o
 .debug_aranges
                0x0000000000000000       0x38 build/default/production/ECU_LAYER/dc_motor/ECU_DC_MOTOR.o
 .debug_ranges  0x0000000000000000       0x28 build/default/production/ECU_LAYER/dc_motor/ECU_DC_MOTOR.o
 .debug_line    0x0000000000000000      0x18e build/default/production/ECU_LAYER/dc_motor/ECU_DC_MOTOR.o
 .debug_str     0x0000000000000000       0x32 build/default/production/ECU_LAYER/dc_motor/ECU_DC_MOTOR.o
 .comment       0x0000000000000000       0x30 build/default/production/ECU_LAYER/dc_motor/ECU_DC_MOTOR.o
 .debug_frame   0x0000000000000000       0x94 build/default/production/ECU_LAYER/dc_motor/ECU_DC_MOTOR.o
 .text          0x0000000000000000        0x0 build/default/production/ECU_LAYER/LED/LED.o
 .data          0x0000000000000000        0x0 build/default/production/ECU_LAYER/LED/LED.o
 .bss           0x0000000000000000        0x0 build/default/production/ECU_LAYER/LED/LED.o
 .text.led_turn_off
                0x0000000000000000       0x6c build/default/production/ECU_LAYER/LED/LED.o
 .text          0x0000000000000000        0x0 build/default/production/ECU_LAYER/relay/ECU_RELAY.o
 .data          0x0000000000000000        0x0 build/default/production/ECU_LAYER/relay/ECU_RELAY.o
 .bss           0x0000000000000000        0x0 build/default/production/ECU_LAYER/relay/ECU_RELAY.o
 .text.relay_intilialize
                0x0000000000000000       0x6a build/default/production/ECU_LAYER/relay/ECU_RELAY.o
 .text.relay_turn_on
                0x0000000000000000       0x6c build/default/production/ECU_LAYER/relay/ECU_RELAY.o
 .text.relay_turn_off
                0x0000000000000000       0x6c build/default/production/ECU_LAYER/relay/ECU_RELAY.o
 .debug_info    0x0000000000000000      0x513 build/default/production/ECU_LAYER/relay/ECU_RELAY.o
 .debug_abbrev  0x0000000000000000      0x100 build/default/production/ECU_LAYER/relay/ECU_RELAY.o
 .debug_loc     0x0000000000000000      0x174 build/default/production/ECU_LAYER/relay/ECU_RELAY.o
 .debug_aranges
                0x0000000000000000       0x30 build/default/production/ECU_LAYER/relay/ECU_RELAY.o
 .debug_ranges  0x0000000000000000       0x20 build/default/production/ECU_LAYER/relay/ECU_RELAY.o
 .debug_line    0x0000000000000000      0x196 build/default/production/ECU_LAYER/relay/ECU_RELAY.o
 .debug_str     0x0000000000000000       0x37 build/default/production/ECU_LAYER/relay/ECU_RELAY.o
 .comment       0x0000000000000000       0x30 build/default/production/ECU_LAYER/relay/ECU_RELAY.o
 .debug_frame   0x0000000000000000       0x74 build/default/production/ECU_LAYER/relay/ECU_RELAY.o
 .text          0x0000000000000000        0x0 build/default/production/MCAL_LAYER/GPIO/GPIO.o
 .data          0x0000000000000000        0x0 build/default/production/MCAL_LAYER/GPIO/GPIO.o
 .bss           0x0000000000000000        0x0 build/default/production/MCAL_LAYER/GPIO/GPIO.o
 .text.gpio_pin_get_direction_status
                0x0000000000000000       0x4e build/default/production/MCAL_LAYER/GPIO/GPIO.o
 .text.gpio_pin_read_logic
                0x0000000000000000       0x4e build/default/production/MCAL_LAYER/GPIO/GPIO.o
 .text.gpio_port_direction_intialize
                0x0000000000000000        0xe build/default/production/MCAL_LAYER/GPIO/GPIO.o
 .text.gpio_port_get_direction_status
                0x0000000000000000       0x1c build/default/production/MCAL_LAYER/GPIO/GPIO.o
 .text.gpio_port_write_logic
                0x0000000000000000        0xe build/default/production/MCAL_LAYER/GPIO/GPIO.o
 .text.gpio_port_read_logic
                0x0000000000000000       0x1c build/default/production/MCAL_LAYER/GPIO/GPIO.o
 .text.gpio_port_toggle_logic
                0x0000000000000000       0x12 build/default/production/MCAL_LAYER/GPIO/GPIO.o
 .text          0x0000000000000000        0x0 build/default/production/APP.o
 .data          0x0000000000000000        0x0 build/default/production/APP.o
 .bss           0x0000000000000000        0x0 build/default/production/APP.o
 .text.debouncing
                0x0000000000000000        0x2 build/default/production/APP.o
 .bss.ret       0x0000000000000000        0x1 build/default/production/APP.o
 .text          0x0000000000000000        0x0 build/default/production/MCAL_LAYER/Interrupt/mcal_internal_interrupt.o
 .data          0x0000000000000000        0x0 build/default/production/MCAL_LAYER/Interrupt/mcal_internal_interrupt.o
 .bss           0x0000000000000000        0x0 build/default/production/MCAL_LAYER/Interrupt/mcal_internal_interrupt.o
 .debug_info    0x0000000000000000      0x271 build/default/production/MCAL_LAYER/Interrupt/mcal_internal_interrupt.o
 .debug_abbrev  0x0000000000000000       0x1b build/default/production/MCAL_LAYER/Interrupt/mcal_internal_interrupt.o
 .debug_aranges
                0x0000000000000000       0x18 build/default/production/MCAL_LAYER/Interrupt/mcal_internal_interrupt.o
 .debug_line    0x0000000000000000       0x1a build/default/production/MCAL_LAYER/Interrupt/mcal_internal_interrupt.o
 .debug_str     0x0000000000000000        0x0 build/default/production/MCAL_LAYER/Interrupt/mcal_internal_interrupt.o
 .comment       0x0000000000000000       0x30 build/default/production/MCAL_LAYER/Interrupt/mcal_internal_interrupt.o
 .text          0x0000000000000000        0x0 build/default/production/MCAL_LAYER/Interrupt/mcal_inerrupt_manger.o
 .data          0x0000000000000000        0x0 build/default/production/MCAL_LAYER/Interrupt/mcal_inerrupt_manger.o
 .bss           0x0000000000000000        0x0 build/default/production/MCAL_LAYER/Interrupt/mcal_inerrupt_manger.o
 .text.ISR_INT  0x0000000000000000        0x4 build/default/production/MCAL_LAYER/Interrupt/mcal_inerrupt_manger.o
 .text.ISR      0x0000000000000000       0xca build/default/production/MCAL_LAYER/Interrupt/mcal_inerrupt_manger.o
 .data.PCINT5_flag
                0x0000000000000000        0x1 build/default/production/MCAL_LAYER/Interrupt/mcal_inerrupt_manger.o
 .data.PCINT4_flag
                0x0000000000000000        0x1 build/default/production/MCAL_LAYER/Interrupt/mcal_inerrupt_manger.o
 .data.PCINT3_flag
                0x0000000000000000        0x1 build/default/production/MCAL_LAYER/Interrupt/mcal_inerrupt_manger.o
 .data.PCINT2_flag
                0x0000000000000000        0x1 build/default/production/MCAL_LAYER/Interrupt/mcal_inerrupt_manger.o
 .data.PCINT1_flag
                0x0000000000000000        0x1 build/default/production/MCAL_LAYER/Interrupt/mcal_inerrupt_manger.o
 .data.PCINT0_flag
                0x0000000000000000        0x1 build/default/production/MCAL_LAYER/Interrupt/mcal_inerrupt_manger.o
 .debug_info    0x0000000000000000      0x4a2 build/default/production/MCAL_LAYER/Interrupt/mcal_inerrupt_manger.o
 .debug_abbrev  0x0000000000000000       0xc8 build/default/production/MCAL_LAYER/Interrupt/mcal_inerrupt_manger.o
 .debug_loc     0x0000000000000000       0x4c build/default/production/MCAL_LAYER/Interrupt/mcal_inerrupt_manger.o
 .debug_aranges
                0x0000000000000000       0x28 build/default/production/MCAL_LAYER/Interrupt/mcal_inerrupt_manger.o
 .debug_ranges  0x0000000000000000       0x18 build/default/production/MCAL_LAYER/Interrupt/mcal_inerrupt_manger.o
 .debug_line    0x0000000000000000      0x277 build/default/production/MCAL_LAYER/Interrupt/mcal_inerrupt_manger.o
 .debug_str     0x0000000000000000       0x40 build/default/production/MCAL_LAYER/Interrupt/mcal_inerrupt_manger.o
 .comment       0x0000000000000000       0x30 build/default/production/MCAL_LAYER/Interrupt/mcal_inerrupt_manger.o
 .debug_frame   0x0000000000000000       0x34 build/default/production/MCAL_LAYER/Interrupt/mcal_inerrupt_manger.o
 .text          0x0000000000000000        0x0 build/default/production/MCAL_LAYER/Interrupt/mcal_external_inerrupt.o
 .data          0x0000000000000000        0x0 build/default/production/MCAL_LAYER/Interrupt/mcal_external_inerrupt.o
 .bss           0x0000000000000000        0x0 build/default/production/MCAL_LAYER/Interrupt/mcal_external_inerrupt.o
 .text.Interrupt_INTx_Deinit
                0x0000000000000000       0x14 build/default/production/MCAL_LAYER/Interrupt/mcal_external_inerrupt.o
 .text.INT0_ISR
                0x0000000000000000       0x16 build/default/production/MCAL_LAYER/Interrupt/mcal_external_inerrupt.o
 .text.Interrupt_PCINTx_Disable
                0x0000000000000000       0x60 build/default/production/MCAL_LAYER/Interrupt/mcal_external_inerrupt.o
 .text.Interrupt_PCINTx_Deinit
                0x0000000000000000       0x10 build/default/production/MCAL_LAYER/Interrupt/mcal_external_inerrupt.o
 .text.PCINT0_ISR
                0x0000000000000000       0x2e build/default/production/MCAL_LAYER/Interrupt/mcal_external_inerrupt.o
 .text.PCINT1_ISR
                0x0000000000000000       0x2e build/default/production/MCAL_LAYER/Interrupt/mcal_external_inerrupt.o
 .text.PCINT2_ISR
                0x0000000000000000       0x2e build/default/production/MCAL_LAYER/Interrupt/mcal_external_inerrupt.o
 .text.PCINT3_ISR
                0x0000000000000000       0x2e build/default/production/MCAL_LAYER/Interrupt/mcal_external_inerrupt.o
 .text.PCINT4_ISR
                0x0000000000000000       0x36 build/default/production/MCAL_LAYER/Interrupt/mcal_external_inerrupt.o
 .text.PCINT5_ISR
                0x0000000000000000       0x36 build/default/production/MCAL_LAYER/Interrupt/mcal_external_inerrupt.o
 .text          0x0000000000000000        0x0 c:/program files/microchip/xc8/v2.45/avr/bin/../lib/gcc/avr/5.4.0/avr25/memx-const\libgcc.a(_copy_data.o)
 .data          0x0000000000000000        0x0 c:/program files/microchip/xc8/v2.45/avr/bin/../lib/gcc/avr/5.4.0/avr25/memx-const\libgcc.a(_copy_data.o)
 .bss           0x0000000000000000        0x0 c:/program files/microchip/xc8/v2.45/avr/bin/../lib/gcc/avr/5.4.0/avr25/memx-const\libgcc.a(_copy_data.o)
 .text.libgcc.mul
                0x0000000000000000        0x0 c:/program files/microchip/xc8/v2.45/avr/bin/../lib/gcc/avr/5.4.0/avr25/memx-const\libgcc.a(_copy_data.o)
 .text.libgcc.div
                0x0000000000000000        0x0 c:/program files/microchip/xc8/v2.45/avr/bin/../lib/gcc/avr/5.4.0/avr25/memx-const\libgcc.a(_copy_data.o)
 .text.libgcc   0x0000000000000000        0x0 c:/program files/microchip/xc8/v2.45/avr/bin/../lib/gcc/avr/5.4.0/avr25/memx-const\libgcc.a(_copy_data.o)
 .text.libgcc.prologue
                0x0000000000000000        0x0 c:/program files/microchip/xc8/v2.45/avr/bin/../lib/gcc/avr/5.4.0/avr25/memx-const\libgcc.a(_copy_data.o)
 .text.libgcc.builtins
                0x0000000000000000        0x0 c:/program files/microchip/xc8/v2.45/avr/bin/../lib/gcc/avr/5.4.0/avr25/memx-const\libgcc.a(_copy_data.o)
 .text.libgcc.fmul
                0x0000000000000000        0x0 c:/program files/microchip/xc8/v2.45/avr/bin/../lib/gcc/avr/5.4.0/avr25/memx-const\libgcc.a(_copy_data.o)
 .text.libgcc.fixed
                0x0000000000000000        0x0 c:/program files/microchip/xc8/v2.45/avr/bin/../lib/gcc/avr/5.4.0/avr25/memx-const\libgcc.a(_copy_data.o)
 .text          0x0000000000000000        0x0 c:/program files/microchip/xc8/v2.45/avr/bin/../lib/gcc/avr/5.4.0/avr25/memx-const\libgcc.a(_xload_2.o)
 .data          0x0000000000000000        0x0 c:/program files/microchip/xc8/v2.45/avr/bin/../lib/gcc/avr/5.4.0/avr25/memx-const\libgcc.a(_xload_2.o)
 .bss           0x0000000000000000        0x0 c:/program files/microchip/xc8/v2.45/avr/bin/../lib/gcc/avr/5.4.0/avr25/memx-const\libgcc.a(_xload_2.o)
 .text.libgcc.mul
                0x0000000000000000        0x0 c:/program files/microchip/xc8/v2.45/avr/bin/../lib/gcc/avr/5.4.0/avr25/memx-const\libgcc.a(_xload_2.o)
 .text.libgcc.div
                0x0000000000000000        0x0 c:/program files/microchip/xc8/v2.45/avr/bin/../lib/gcc/avr/5.4.0/avr25/memx-const\libgcc.a(_xload_2.o)
 .text.libgcc.prologue
                0x0000000000000000        0x0 c:/program files/microchip/xc8/v2.45/avr/bin/../lib/gcc/avr/5.4.0/avr25/memx-const\libgcc.a(_xload_2.o)
 .stack.descriptors
                0x0000000000000000       0x17 c:/program files/microchip/xc8/v2.45/avr/bin/../lib/gcc/avr/5.4.0/avr25/memx-const\libgcc.a(_xload_2.o)
 .text.libgcc.builtins
                0x0000000000000000        0x0 c:/program files/microchip/xc8/v2.45/avr/bin/../lib/gcc/avr/5.4.0/avr25/memx-const\libgcc.a(_xload_2.o)
 .text.libgcc.fmul
                0x0000000000000000        0x0 c:/program files/microchip/xc8/v2.45/avr/bin/../lib/gcc/avr/5.4.0/avr25/memx-const\libgcc.a(_xload_2.o)
 .text.libgcc.fixed
                0x0000000000000000        0x0 c:/program files/microchip/xc8/v2.45/avr/bin/../lib/gcc/avr/5.4.0/avr25/memx-const\libgcc.a(_xload_2.o)
 .text          0x0000000000000000        0x0 c:/program files/microchip/xc8/v2.45/avr/bin/../lib/gcc/avr/5.4.0/../../../../avr/lib/avr25/memx-const\libc.a(exit.o)
 .data          0x0000000000000000        0x0 c:/program files/microchip/xc8/v2.45/avr/bin/../lib/gcc/avr/5.4.0/../../../../avr/lib/avr25/memx-const\libc.a(exit.o)
 .bss           0x0000000000000000        0x0 c:/program files/microchip/xc8/v2.45/avr/bin/../lib/gcc/avr/5.4.0/../../../../avr/lib/avr25/memx-const\libc.a(exit.o)
 .stack.descriptors
                0x0000000000000000       0x73 c:/program files/microchip/xc8/v2.45/avr/bin/../lib/gcc/avr/5.4.0/../../../../avr/lib/avr25/memx-const\libc.a(exit.o)
 .text          0x0000000000000000        0x0 c:/program files/microchip/xc8/v2.45/avr/bin/../lib/gcc/avr/5.4.0/../../../../avr/lib/avr25/memx-const\libc.a(_Exit.o)
 .data          0x0000000000000000        0x0 c:/program files/microchip/xc8/v2.45/avr/bin/../lib/gcc/avr/5.4.0/../../../../avr/lib/avr25/memx-const\libc.a(_Exit.o)
 .bss           0x0000000000000000        0x0 c:/program files/microchip/xc8/v2.45/avr/bin/../lib/gcc/avr/5.4.0/../../../../avr/lib/avr25/memx-const\libc.a(_Exit.o)
 .stack.descriptors
                0x0000000000000000       0x13 c:/program files/microchip/xc8/v2.45/avr/bin/../lib/gcc/avr/5.4.0/../../../../avr/lib/avr25/memx-const\libc.a(_Exit.o)
 .text          0x0000000000000000        0x0 c:/program files/microchip/xc8/v2.45/avr/bin/../lib/gcc/avr/5.4.0/avr25/memx-const\libgcc.a(_exit.o)
 .data          0x0000000000000000        0x0 c:/program files/microchip/xc8/v2.45/avr/bin/../lib/gcc/avr/5.4.0/avr25/memx-const\libgcc.a(_exit.o)
 .bss           0x0000000000000000        0x0 c:/program files/microchip/xc8/v2.45/avr/bin/../lib/gcc/avr/5.4.0/avr25/memx-const\libgcc.a(_exit.o)
 .text.libgcc.mul
                0x0000000000000000        0x0 c:/program files/microchip/xc8/v2.45/avr/bin/../lib/gcc/avr/5.4.0/avr25/memx-const\libgcc.a(_exit.o)
 .text.libgcc.div
                0x0000000000000000        0x0 c:/program files/microchip/xc8/v2.45/avr/bin/../lib/gcc/avr/5.4.0/avr25/memx-const\libgcc.a(_exit.o)
 .text.libgcc   0x0000000000000000        0x0 c:/program files/microchip/xc8/v2.45/avr/bin/../lib/gcc/avr/5.4.0/avr25/memx-const\libgcc.a(_exit.o)
 .text.libgcc.prologue
                0x0000000000000000        0x0 c:/program files/microchip/xc8/v2.45/avr/bin/../lib/gcc/avr/5.4.0/avr25/memx-const\libgcc.a(_exit.o)
 .stack.descriptors
                0x0000000000000000       0x13 c:/program files/microchip/xc8/v2.45/avr/bin/../lib/gcc/avr/5.4.0/avr25/memx-const\libgcc.a(_exit.o)
 .text.libgcc.builtins
                0x0000000000000000        0x0 c:/program files/microchip/xc8/v2.45/avr/bin/../lib/gcc/avr/5.4.0/avr25/memx-const\libgcc.a(_exit.o)
 .text.libgcc.fmul
                0x0000000000000000        0x0 c:/program files/microchip/xc8/v2.45/avr/bin/../lib/gcc/avr/5.4.0/avr25/memx-const\libgcc.a(_exit.o)
 .text.libgcc.fixed
                0x0000000000000000        0x0 c:/program files/microchip/xc8/v2.45/avr/bin/../lib/gcc/avr/5.4.0/avr25/memx-const\libgcc.a(_exit.o)

Memory Configuration

Name             Origin             Length             Attributes
text             0x0000000000000000 0x0000000000002000 xr
data             0x0000000000800060 0x0000000000000200 rw !x
eeprom           0x0000000000810000 0x0000000000000200 rw !x
fuse             0x0000000000820000 0x0000000000000003 rw !x
lock             0x0000000000830000 0x0000000000000400 rw !x
signature        0x0000000000840000 0x0000000000000400 rw !x
user_signatures  0x0000000000850000 0x0000000000000400 rw !x
bootrow          0x0000000000860000 0x0000000000000400 rw !x
*default*        0x0000000000000000 0xffffffffffffffff

Linker script and memory map

LOAD C:/Users/OMEN/.mchp_packs/Microchip/ATtiny_DFP/3.1.260/xc8/avr/lib/avr25/memx-const/crtattiny85.o
                0x0000000000000001                __MPLAB_BUILD = 0x1
LOAD build/default/production/ECU_LAYER/botton/ECU_BUTTON_.o
LOAD build/default/production/ECU_LAYER/dc_motor/ECU_DC_MOTOR.o
LOAD build/default/production/ECU_LAYER/LED/LED.o
LOAD build/default/production/ECU_LAYER/relay/ECU_RELAY.o
LOAD build/default/production/MCAL_LAYER/GPIO/GPIO.o
LOAD build/default/production/APP.o
LOAD build/default/production/MCAL_LAYER/Interrupt/mcal_internal_interrupt.o
LOAD build/default/production/MCAL_LAYER/Interrupt/mcal_inerrupt_manger.o
LOAD build/default/production/MCAL_LAYER/Interrupt/mcal_external_inerrupt.o
START GROUP
LOAD c:/program files/microchip/xc8/v2.45/avr/bin/../lib/gcc/avr/5.4.0/../../../../avr/lib/avr25/memx-const\libm.a
END GROUP
START GROUP
LOAD c:/program files/microchip/xc8/v2.45/avr/bin/../lib/gcc/avr/5.4.0/avr25/memx-const\libgcc.a
LOAD c:/program files/microchip/xc8/v2.45/avr/bin/../lib/gcc/avr/5.4.0/../../../../avr/lib/avr25/memx-const\libm.a
LOAD c:/program files/microchip/xc8/v2.45/avr/bin/../lib/gcc/avr/5.4.0/../../../../avr/lib/avr25/memx-const\libc.a
LOAD C:/Users/OMEN/.mchp_packs/Microchip/ATtiny_DFP/3.1.260/xc8/avr/lib/avr25/memx-const\libattiny85.a
END GROUP
                0x0000000000000000                __TEXT_REGION_ORIGIN__ = DEFINED (__TEXT_REGION_ORIGIN__)?__TEXT_REGION_ORIGIN__:0x0
                [0x0000000000800060]                __DATA_REGION_ORIGIN__ = DEFINED (__DATA_REGION_ORIGIN__)?__DATA_REGION_ORIGIN__:0x800060
                [0x0000000000002000]                __TEXT_REGION_LENGTH__ = DEFINED (__TEXT_REGION_LENGTH__)?__TEXT_REGION_LENGTH__:0x2000
                [0x0000000000000200]                __DATA_REGION_LENGTH__ = DEFINED (__DATA_REGION_LENGTH__)?__DATA_REGION_LENGTH__:0xffa0
                [0x0000000000000200]                __EEPROM_REGION_LENGTH__ = DEFINED (__EEPROM_REGION_LENGTH__)?__EEPROM_REGION_LENGTH__:0x10000
                [0x0000000000000003]                __FUSE_REGION_LENGTH__ = DEFINED (__FUSE_REGION_LENGTH__)?__FUSE_REGION_LENGTH__:0x400
                0x0000000000000400                __LOCK_REGION_LENGTH__ = DEFINED (__LOCK_REGION_LENGTH__)?__LOCK_REGION_LENGTH__:0x400
                0x0000000000000400                __SIGNATURE_REGION_LENGTH__ = DEFINED (__SIGNATURE_REGION_LENGTH__)?__SIGNATURE_REGION_LENGTH__:0x400
                0x0000000000000400                __USER_SIGNATURE_REGION_LENGTH__ = DEFINED (__USER_SIGNATURE_REGION_LENGTH__)?__USER_SIGNATURE_REGION_LENGTH__:0x400
                0x0000000000000400                __BOOTROW_REGION_LENGTH__ = DEFINED (__BOOTROW_REGION_LENGTH__)?__BOOTROW_REGION_LENGTH__:0x400

.hash
 *(.hash)

.dynsym
 *(.dynsym)

.dynstr
 *(.dynstr)

.gnu.version
 *(.gnu.version)

.gnu.version_d
 *(.gnu.version_d)

.gnu.version_r
 *(.gnu.version_r)

.rel.init
 *(.rel.init)

.rela.init
 *(.rela.init)

.rel.text
 *(.rel.text)
 *(.rel.text.*)
 *(.rel.gnu.linkonce.t*)

.rela.text
 *(.rela.text)
 *(.rela.text.*)
 *(.rela.gnu.linkonce.t*)

.rel.fini
 *(.rel.fini)

.rela.fini
 *(.rela.fini)

.rel.rodata
 *(.rel.rodata)
 *(.rel.rodata.*)
 *(.rel.gnu.linkonce.r*)

.rela.rodata
 *(.rela.rodata)
 *(.rela.rodata.*)
 *(.rela.gnu.linkonce.r*)

.rel.data
 *(.rel.data)
 *(.rel.data.*)
 *(.rel.gnu.linkonce.d*)

.rela.data
 *(.rela.data)
 *(.rela.data.*)
 *(.rela.gnu.linkonce.d*)

.rel.ctors
 *(.rel.ctors)

.rela.ctors
 *(.rela.ctors)

.rel.dtors
 *(.rel.dtors)

.rela.dtors
 *(.rela.dtors)

.rel.got
 *(.rel.got)

.rela.got
 *(.rela.got)

.rel.bss
 *(.rel.bss)

.rela.bss
 *(.rela.bss)

.rel.plt
 *(.rel.plt)

.rela.plt
 *(.rela.plt)

.text           0x0000000000000000       0x82
 *(.vectors)
 .vectors       0x0000000000000000       0x1e C:/Users/OMEN/.mchp_packs/Microchip/ATtiny_DFP/3.1.260/xc8/avr/lib/avr25/memx-const/crtattiny85.o
                0x0000000000000000                __vector_default
                0x0000000000000000                __vectors
 *(.vectors)
 *(.progmem.gcc*)
 *(.dinit)
 .dinit         0x000000000000001e       0x13 data_init
                0x0000000000000032                . = ALIGN (0x2)
 *fill*         0x0000000000000031        0x1 
                0x0000000000000032                __trampolines_start = .
 *(.trampolines)
 .trampolines   0x0000000000000032        0x0 linker stubs
 *(.trampolines*)
                0x0000000000000032                __trampolines_end = .
 *libprintf_flt.a:*(.progmem.data)
 *libc.a:*(.progmem.data)
                0x0000000000000032                . = ALIGN (0x2)
 *(.jumptables)
 *(.jumptables*)
 *(.lowtext)
 *(.lowtext*)
                0x0000000000000032                __ctors_start = .
 *(.ctors)
                0x0000000000000032                __ctors_end = .
                0x0000000000000032                __dtors_start = .
 *(.dtors)
                0x0000000000000032                __dtors_end = .
 SORT(*)(.ctors)
 SORT(*)(.dtors)
 *(.init0)
 .init0         0x0000000000000032        0x0 C:/Users/OMEN/.mchp_packs/Microchip/ATtiny_DFP/3.1.260/xc8/avr/lib/avr25/memx-const/crtattiny85.o
                0x0000000000000032                __init
 *(.init0)
 *(.init1)
 *(.init1)
 *(.init2)
 .init2         0x0000000000000032        0xc C:/Users/OMEN/.mchp_packs/Microchip/ATtiny_DFP/3.1.260/xc8/avr/lib/avr25/memx-const/crtattiny85.o
 *(.init2)
 *(.init3)
 *(.init3)
 *(.init4)
 .init4         0x000000000000003e       0x3c c:/program files/microchip/xc8/v2.45/avr/bin/../lib/gcc/avr/5.4.0/avr25/memx-const\libgcc.a(_copy_data.o)
                0x000000000000003e                __do_copy_data
                0x000000000000006c                __do_clear_bss
 *(.init4)
 *(.init5)
 *(.init5)
 *(.init6)
 *(.init6)
 *(.init7)
 *(.init7)
 *(.init8)
 *(.init8)
 *(.init9)
 .init9         0x000000000000007a        0x4 C:/Users/OMEN/.mchp_packs/Microchip/ATtiny_DFP/3.1.260/xc8/avr/lib/avr25/memx-const/crtattiny85.o
 *(.init9)
                0x000000000000007e                . = ALIGN (0x2)
 *(.fini9)
 .fini9         0x000000000000007e        0x0 c:/program files/microchip/xc8/v2.45/avr/bin/../lib/gcc/avr/5.4.0/avr25/memx-const\libgcc.a(_exit.o)
                0x000000000000007e                _exit
 *(.fini9)
 *(.fini8)
 *(.fini8)
 *(.fini7)
 *(.fini7)
 *(.fini6)
 *(.fini6)
 *(.fini5)
 *(.fini5)
 *(.fini4)
 *(.fini4)
 *(.fini3)
 *(.fini3)
 *(.fini2)
 *(.fini2)
 *(.fini1)
 *(.fini1)
 *(.fini0)
 .fini0         0x000000000000007e        0x4 c:/program files/microchip/xc8/v2.45/avr/bin/../lib/gcc/avr/5.4.0/avr25/memx-const\libgcc.a(_exit.o)
 *(.fini0)
                0x0000000000000082                _etext = .

.data           0x0000000000800060        0x0 load address 0x0000000000000082
                [!provide]                        PROVIDE (__data_start, .)
 *(.gnu.linkonce.d*)
 *(.gnu.linkonce.r*)
                0x0000000000800060                . = ALIGN (0x2)
 *fill*         0x0000000000800060        0x0 
                0x0000000000800060                _edata = .
                [!provide]                        PROVIDE (__data_end, .)

.bss            0x0000000000800060        0x0
                [!provide]                        PROVIDE (__bss_start, .)
 *(COMMON)
                [!provide]                        PROVIDE (__bss_end, .)
                0x0000000000000082                __data_load_start = LOADADDR (.data)
                0x0000000000000082                __data_load_end = (__data_load_start + SIZEOF (.data))

.noinit         0x0000000000800060        0x0
                [!provide]                        PROVIDE (__noinit_start, .)
 *(.noinit*)
                [!provide]                        PROVIDE (__noinit_end, .)
                0x0000000000800060                _end = .

.eeprom         0x0000000000810000        0x0
 *(.eeprom*)
                0x0000000000810000                __eeprom_end = .

.fuse
 *(.fuse)
 *(.lfuse)
 *(.hfuse)
 *(.efuse)

.lock
 *(.lock*)

.signature
 *(.signature*)

.user_signatures
 *(.user_signatures*)

.bootrow
 *(.bootrow*)

.stab
 *(.stab)

.stabstr
 *(.stabstr)

.stab.excl
 *(.stab.excl)

.stab.exclstr
 *(.stab.exclstr)

.stab.index
 *(.stab.index)

.stab.indexstr
 *(.stab.indexstr)

.comment        0x0000000000000000       0x5b
 *(.comment)
 .comment       0x0000000000000000       0x2f build/default/production/ECU_LAYER/LED/LED.o
                                         0x30 (size before relaxing)
 .comment       0x000000000000002f       0x30 build/default/production/MCAL_LAYER/GPIO/GPIO.o
 .comment       0x000000000000002f       0x30 build/default/production/APP.o
 .comment       0x000000000000002f       0x30 build/default/production/MCAL_LAYER/Interrupt/mcal_external_inerrupt.o
 .comment       0x000000000000002f       0x2c c:/program files/microchip/xc8/v2.45/avr/bin/../lib/gcc/avr/5.4.0/../../../../avr/lib/avr25/memx-const\libc.a(exit.o)
                                         0x2d (size before relaxing)
 .comment       0x000000000000005b       0x2d c:/program files/microchip/xc8/v2.45/avr/bin/../lib/gcc/avr/5.4.0/../../../../avr/lib/avr25/memx-const\libc.a(_Exit.o)

.stack.descriptors.hdr
                0x0000000000000000       0x38
 .stack.descriptors.hdr
                0x0000000000000000        0xe c:/program files/microchip/xc8/v2.45/avr/bin/../lib/gcc/avr/5.4.0/avr25/memx-const\libgcc.a(_xload_2.o)
 .stack.descriptors.hdr
                0x000000000000000e        0xe c:/program files/microchip/xc8/v2.45/avr/bin/../lib/gcc/avr/5.4.0/../../../../avr/lib/avr25/memx-const\libc.a(exit.o)
 .stack.descriptors.hdr
                0x000000000000001c        0xe c:/program files/microchip/xc8/v2.45/avr/bin/../lib/gcc/avr/5.4.0/../../../../avr/lib/avr25/memx-const\libc.a(_Exit.o)
 .stack.descriptors.hdr
                0x000000000000002a        0xe c:/program files/microchip/xc8/v2.45/avr/bin/../lib/gcc/avr/5.4.0/avr25/memx-const\libgcc.a(_exit.o)

.note.GNU-stack
                0x0000000000000000        0x0
 .note.GNU-stack
                0x0000000000000000        0x0 c:/program files/microchip/xc8/v2.45/avr/bin/../lib/gcc/avr/5.4.0/../../../../avr/lib/avr25/memx-const\libc.a(exit.o)
 .note.GNU-stack
                0x0000000000000000        0x0 c:/program files/microchip/xc8/v2.45/avr/bin/../lib/gcc/avr/5.4.0/../../../../avr/lib/avr25/memx-const\libc.a(_Exit.o)

.note.gnu.build-id
 *(.note.gnu.build-id)

.debug
 *(.debug)

.line
 *(.line)

.debug_srcinfo
 *(.debug_srcinfo)

.debug_sfnames
 *(.debug_sfnames)

.debug_aranges  0x0000000000000000      0x170
 *(.debug_aranges)
 .debug_aranges
                0x0000000000000000       0x38 build/default/production/ECU_LAYER/LED/LED.o
 .debug_aranges
                0x0000000000000038       0x70 build/default/production/MCAL_LAYER/GPIO/GPIO.o
 .debug_aranges
                0x00000000000000a8       0x48 build/default/production/APP.o
 .debug_aranges
                0x00000000000000f0       0x80 build/default/production/MCAL_LAYER/Interrupt/mcal_external_inerrupt.o

.debug_pubnames
 *(.debug_pubnames)

.debug_info     0x0000000000000000     0x2676
 *(.debug_info .gnu.linkonce.wi.*)
 .debug_info    0x0000000000000000      0x420 C:/Users/OMEN/.mchp_packs/Microchip/ATtiny_DFP/3.1.260/xc8/avr/lib/avr25/memx-const/crtattiny85.o
 .debug_info    0x0000000000000420      0x56e build/default/production/ECU_LAYER/LED/LED.o
 .debug_info    0x000000000000098e      0x7e4 build/default/production/MCAL_LAYER/GPIO/GPIO.o
 .debug_info    0x0000000000001172      0x83f build/default/production/APP.o
 .debug_info    0x00000000000019b1      0xcc5 build/default/production/MCAL_LAYER/Interrupt/mcal_external_inerrupt.o

.debug_abbrev   0x0000000000000000      0x924
 *(.debug_abbrev)
 .debug_abbrev  0x0000000000000000      0x3e8 C:/Users/OMEN/.mchp_packs/Microchip/ATtiny_DFP/3.1.260/xc8/avr/lib/avr25/memx-const/crtattiny85.o
 .debug_abbrev  0x00000000000003e8      0x100 build/default/production/ECU_LAYER/LED/LED.o
 .debug_abbrev  0x00000000000004e8      0x177 build/default/production/MCAL_LAYER/GPIO/GPIO.o
 .debug_abbrev  0x000000000000065f      0x104 build/default/production/APP.o
 .debug_abbrev  0x0000000000000763      0x1c1 build/default/production/MCAL_LAYER/Interrupt/mcal_external_inerrupt.o

.debug_line     0x0000000000000000      0xd53
 *(.debug_line .debug_line.* .debug_line_end)
 .debug_line    0x0000000000000000       0xf5 C:/Users/OMEN/.mchp_packs/Microchip/ATtiny_DFP/3.1.260/xc8/avr/lib/avr25/memx-const/crtattiny85.o
 .debug_line    0x00000000000000f5      0x1d2 build/default/production/ECU_LAYER/LED/LED.o
 .debug_line    0x00000000000002c7      0x35e build/default/production/MCAL_LAYER/GPIO/GPIO.o
 .debug_line    0x0000000000000625      0x16c build/default/production/APP.o
 .debug_line    0x0000000000000791      0x5c2 build/default/production/MCAL_LAYER/Interrupt/mcal_external_inerrupt.o

.debug_frame    0x0000000000000000      0x2e4
 *(.debug_frame)
 .debug_frame   0x0000000000000000       0x94 build/default/production/ECU_LAYER/LED/LED.o
 .debug_frame   0x0000000000000094       0xd4 build/default/production/MCAL_LAYER/GPIO/GPIO.o
 .debug_frame   0x0000000000000168       0x74 build/default/production/APP.o
 .debug_frame   0x00000000000001dc      0x108 build/default/production/MCAL_LAYER/Interrupt/mcal_external_inerrupt.o

.debug_str      0x0000000000000000      0x24a
 *(.debug_str)
 .debug_str     0x0000000000000000      0x169 C:/Users/OMEN/.mchp_packs/Microchip/ATtiny_DFP/3.1.260/xc8/avr/lib/avr25/memx-const/crtattiny85.o
 .debug_str     0x0000000000000169       0x46 build/default/production/ECU_LAYER/LED/LED.o
 .debug_str     0x00000000000001af       0x21 build/default/production/MCAL_LAYER/GPIO/GPIO.o
 .debug_str     0x00000000000001d0       0x55 build/default/production/APP.o
 .debug_str     0x0000000000000225       0x25 build/default/production/MCAL_LAYER/Interrupt/mcal_external_inerrupt.o

.debug_loc      0x0000000000000000      0xac7
 *(.debug_loc)
 .debug_loc     0x0000000000000000      0x1f0 build/default/production/ECU_LAYER/LED/LED.o
 .debug_loc     0x00000000000001f0      0x4c2 build/default/production/MCAL_LAYER/GPIO/GPIO.o
 .debug_loc     0x00000000000006b2      0x415 build/default/production/MCAL_LAYER/Interrupt/mcal_external_inerrupt.o

.debug_macinfo
 *(.debug_macinfo)

.debug_weaknames
 *(.debug_weaknames)

.debug_funcnames
 *(.debug_funcnames)

.debug_typenames
 *(.debug_typenames)

.debug_varnames
 *(.debug_varnames)

.debug_pubtypes
 *(.debug_pubtypes)

.debug_ranges   0x0000000000000000      0x130
 *(.debug_ranges)
 .debug_ranges  0x0000000000000000       0x28 build/default/production/ECU_LAYER/LED/LED.o
 .debug_ranges  0x0000000000000028       0x60 build/default/production/MCAL_LAYER/GPIO/GPIO.o
 .debug_ranges  0x0000000000000088       0x38 build/default/production/APP.o
 .debug_ranges  0x00000000000000c0       0x70 build/default/production/MCAL_LAYER/Interrupt/mcal_external_inerrupt.o

.debug_macro
 *(.debug_macro)
OUTPUT(dist/default/production/MRT_Attiny_App.production.elf elf32-avr)
LOAD linker stubs
LOAD data_init

.note.gnu.avr.deviceinfo
                0x0000000000000000       0x3c
 .note.gnu.avr.deviceinfo
                0x0000000000000000       0x3c C:/Users/OMEN/.mchp_packs/Microchip/ATtiny_DFP/3.1.260/xc8/avr/lib/avr25/memx-const/crtattiny85.o

.bss.PCINT4_InterruptHandler_Low
                0x000000000080006b        0x2
 .bss.PCINT4_InterruptHandler_Low
                0x000000000080006b        0x2 build/default/production/MCAL_LAYER/Interrupt/mcal_external_inerrupt.o

.bss.PCINT4_InterruptHandler_High
                0x000000000080006d        0x2
 .bss.PCINT4_InterruptHandler_High
                0x000000000080006d        0x2 build/default/production/MCAL_LAYER/Interrupt/mcal_external_inerrupt.o

.bss.PCINT3_InterruptHandler_Low
                0x000000000080006f        0x2
 .bss.PCINT3_InterruptHandler_Low
                0x000000000080006f        0x2 build/default/production/MCAL_LAYER/Interrupt/mcal_external_inerrupt.o

.bss.PCINT3_InterruptHandler_High
                0x0000000000800071        0x2
 .bss.PCINT3_InterruptHandler_High
                0x0000000000800071        0x2 build/default/production/MCAL_LAYER/Interrupt/mcal_external_inerrupt.o

.bss.PCINT2_InterruptHandler_Low
                0x0000000000800073        0x2
 .bss.PCINT2_InterruptHandler_Low
                0x0000000000800073        0x2 build/default/production/MCAL_LAYER/Interrupt/mcal_external_inerrupt.o

.bss.PCINT2_InterruptHandler_High
                0x0000000000800075        0x2
 .bss.PCINT2_InterruptHandler_High
                0x0000000000800075        0x2 build/default/production/MCAL_LAYER/Interrupt/mcal_external_inerrupt.o

.bss.PCINT1_InterruptHandler_Low
                0x0000000000800077        0x2
 .bss.PCINT1_InterruptHandler_Low
                0x0000000000800077        0x2 build/default/production/MCAL_LAYER/Interrupt/mcal_external_inerrupt.o

.bss.PCINT1_InterruptHandler_High
                0x0000000000800079        0x2
 .bss.PCINT1_InterruptHandler_High
                0x0000000000800079        0x2 build/default/production/MCAL_LAYER/Interrupt/mcal_external_inerrupt.o

.bss.PCINT0_InterruptHandler_Low
                0x000000000080007b        0x2
 .bss.PCINT0_InterruptHandler_Low
                0x000000000080007b        0x2 build/default/production/MCAL_LAYER/Interrupt/mcal_external_inerrupt.o

.bss.PCINT0_InterruptHandler_High
                0x000000000080007d        0x2
 .bss.PCINT0_InterruptHandler_High
                0x000000000080007d        0x2 build/default/production/MCAL_LAYER/Interrupt/mcal_external_inerrupt.o

.bss.INT0_InterruptHandler
                0x000000000080007f        0x2
 .bss.INT0_InterruptHandler
                0x000000000080007f        0x2 build/default/production/MCAL_LAYER/Interrupt/mcal_external_inerrupt.o

.text.Interrupt_PCINTx_Init
                0x0000000000000082      0x150
 .text.Interrupt_PCINTx_Init
                0x0000000000000082      0x150 build/default/production/MCAL_LAYER/Interrupt/mcal_external_inerrupt.o
                0x0000000000000082                Interrupt_PCINTx_Init

.text.Interrupt_INTx_Init
                0x00000000000001d2       0x9e
 .text.Interrupt_INTx_Init
                0x00000000000001d2       0x9e build/default/production/MCAL_LAYER/Interrupt/mcal_external_inerrupt.o
                0x00000000000001d2                Interrupt_INTx_Init

.text.Interrupt_PCINTx_Enable
                0x0000000000000270       0x84
 .text.Interrupt_PCINTx_Enable
                0x0000000000000270       0x84 build/default/production/MCAL_LAYER/Interrupt/mcal_external_inerrupt.o
                0x0000000000000270                Interrupt_PCINTx_Enable

.text.gpio_pin_direction_intialize
                0x00000000000002f4       0x7e
 .text.gpio_pin_direction_intialize
                0x00000000000002f4       0x7e build/default/production/MCAL_LAYER/GPIO/GPIO.o
                0x00000000000002f4                gpio_pin_direction_intialize

.text.gpio_pin_write_logic
                0x0000000000000372       0x70
 .text.gpio_pin_write_logic
                0x0000000000000372       0x70 build/default/production/MCAL_LAYER/GPIO/GPIO.o
                0x0000000000000372                gpio_pin_write_logic

.text.led_turn_on
                0x00000000000003e2       0x6c
 .text.led_turn_on
                0x00000000000003e2       0x6c build/default/production/ECU_LAYER/LED/LED.o
                0x00000000000003e2                led_turn_on

.text.led_initialize
                0x000000000000044e       0x6a
 .text.led_initialize
                0x000000000000044e       0x6a build/default/production/ECU_LAYER/LED/LED.o
                0x000000000000044e                led_initialize

.text.led_turn_toggle
                0x00000000000004b8       0x6a
 .text.led_turn_toggle
                0x00000000000004b8       0x6a build/default/production/ECU_LAYER/LED/LED.o
                0x00000000000004b8                led_turn_toggle

.text.gpio_pin_toggle_logic
                0x0000000000000522       0x44
 .text.gpio_pin_toggle_logic
                0x0000000000000522       0x44 build/default/production/MCAL_LAYER/GPIO/GPIO.o
                0x0000000000000522                gpio_pin_toggle_logic

.text.gpio_pin_intialize
                0x0000000000000566       0x34
 .text.gpio_pin_intialize
                0x0000000000000566       0x34 build/default/production/MCAL_LAYER/GPIO/GPIO.o
                0x0000000000000566                gpio_pin_intialize

.text.application_initilaized
                0x000000000000059a       0x22
 .text.application_initilaized
                0x000000000000059a       0x22 build/default/production/APP.o
                0x000000000000059a                application_initilaized

.text.inter_2   0x00000000000005bc       0x12
 .text.inter_2  0x00000000000005bc       0x12 build/default/production/APP.o
                0x00000000000005bc                inter_2

.text.libgcc    0x00000000000005ce       0x10
 .text.libgcc   0x00000000000005ce       0x10 c:/program files/microchip/xc8/v2.45/avr/bin/../lib/gcc/avr/5.4.0/avr25/memx-const\libgcc.a(_xload_2.o)
                0x00000000000005ce                __xload_2

.text.exit      0x00000000000005de        0xe
 .text.exit     0x00000000000005de        0xe c:/program files/microchip/xc8/v2.45/avr/bin/../lib/gcc/avr/5.4.0/../../../../avr/lib/avr25/memx-const\libc.a(exit.o)
                0x00000000000005de                exit

.text.inter1_high
                0x00000000000005ec        0xa
 .text.inter1_high
                0x00000000000005ec        0xa build/default/production/APP.o
                0x00000000000005ec                inter1_high

.text.inter1_low
                0x00000000000005f6        0xa
 .text.inter1_low
                0x00000000000005f6        0xa build/default/production/APP.o
                0x00000000000005f6                inter1_low

.text.main      0x0000000000000600        0x4
 .text.main     0x0000000000000600        0x4 build/default/production/APP.o
                0x0000000000000600                main

.text           0x0000000000000604        0x2
 .text          0x0000000000000604        0x2 C:/Users/OMEN/.mchp_packs/Microchip/ATtiny_DFP/3.1.260/xc8/avr/lib/avr25/memx-const/crtattiny85.o
                0x0000000000000604                __vector_1
                0x0000000000000604                __vector_12
                0x0000000000000604                __bad_interrupt
                0x0000000000000604                __vector_6
                0x0000000000000604                __vector_3
                0x0000000000000604                __vector_11
                0x0000000000000604                __vector_13
                0x0000000000000604                __vector_7
                0x0000000000000604                __vector_5
                0x0000000000000604                __vector_4
                0x0000000000000604                __vector_9
                0x0000000000000604                __vector_2
                0x0000000000000604                __vector_8
                0x0000000000000604                __vector_14
                0x0000000000000604                __vector_10

.text.__dummy_fini
                0x0000000000000606        0x2
 .text.__dummy_fini
                0x0000000000000606        0x2 c:/program files/microchip/xc8/v2.45/avr/bin/../lib/gcc/avr/5.4.0/../../../../avr/lib/avr25/memx-const\libc.a(exit.o)
                0x0000000000000606                _fini

.text.__dummy_funcs_on_exit
                0x0000000000000608        0x2
 .text.__dummy_funcs_on_exit
                0x0000000000000608        0x2 c:/program files/microchip/xc8/v2.45/avr/bin/../lib/gcc/avr/5.4.0/../../../../avr/lib/avr25/memx-const\libc.a(exit.o)
                0x0000000000000608                __funcs_on_exit

.text.__dummy_simulator_exit
                0x000000000000060a        0x2
 .text.__dummy_simulator_exit
                0x000000000000060a        0x2 c:/program files/microchip/xc8/v2.45/avr/bin/../lib/gcc/avr/5.4.0/../../../../avr/lib/avr25/memx-const\libc.a(exit.o)
                0x000000000000060a                __simulator_exit

.text._Exit     0x000000000000060c        0x2
 .text._Exit    0x000000000000060c        0x2 c:/program files/microchip/xc8/v2.45/avr/bin/../lib/gcc/avr/5.4.0/../../../../avr/lib/avr25/memx-const\libc.a(_Exit.o)
                0x000000000000060c                _Exit

.data.inter1    0x0000000000800060        0x6 load address 0x000000000000060e
 .data.inter1   0x0000000000800060        0x6 build/default/production/APP.o
                0x0000000000800060                inter1

.data.inter2    0x0000000000800066        0x5 load address 0x0000000000000614
 .data.inter2   0x0000000000800066        0x5 build/default/production/APP.o
                0x0000000000800066                inter2

.data.LED_3     0x0000000000800081        0x1 load address 0x0000000000000619
 .data.LED_3    0x0000000000800081        0x1 build/default/production/APP.o
                0x0000000000800081                LED_3

.data.LED_2     0x0000000000800082        0x1 load address 0x000000000000061a
 .data.LED_2    0x0000000000800082        0x1 build/default/production/APP.o
                0x0000000000800082                LED_2
